target datalayout = "e-m:e-p270:32:32-p271:32:32-p272:64:64-i64:64-i128:128-f80:128-n8:16:32:64-S128"
target triple = "x86_64-pc-linux-gnu"

%struct.sp_int = type { i16, i16, [129 x i64] }

; Function Attrs: nounwind uwtable
define internal void @_sp_div_2(ptr noundef %0, ptr noundef %1) #0 {
  %3 = alloca ptr, align 8
  %4 = alloca ptr, align 8
  %5 = alloca i32, align 4
  %6 = alloca i32, align 4
  store ptr %0, ptr %3, align 8, !tbaa !3
  store ptr %1, ptr %4, align 8, !tbaa !3
  call void @llvm.lifetime.start.p0(i64 4, ptr %5) #8
  store i32 0, ptr %5, align 4, !tbaa !8
  br label %7

7:                                                ; preds = %37, %2
  %8 = load i32, ptr %5, align 4, !tbaa !8
  %9 = load ptr, ptr %3, align 8, !tbaa !3
  %10 = getelementptr inbounds nuw %struct.sp_int, ptr %9, i32 0, i32 0
  %11 = load i16, ptr %10, align 8, !tbaa !15
  %12 = zext i16 %11 to i32
  %13 = sub nsw i32 %12, 1
  %14 = icmp slt i32 %8, %13
  br i1 %14, label %15, label %40

15:                                               ; preds = %7
  %16 = load ptr, ptr %3, align 8, !tbaa !3
  %17 = getelementptr inbounds nuw %struct.sp_int, ptr %16, i32 0, i32 2
  %18 = load i32, ptr %5, align 4, !tbaa !8
  %19 = sext i32 %18 to i64
  %20 = getelementptr inbounds [129 x i64], ptr %17, i64 0, i64 %19
  %21 = load i64, ptr %20, align 8, !tbaa !16
  %22 = lshr i64 %21, 1
  %23 = load ptr, ptr %3, align 8, !tbaa !3
  %24 = getelementptr inbounds nuw %struct.sp_int, ptr %23, i32 0, i32 2
  %25 = load i32, ptr %5, align 4, !tbaa !8
  %26 = add nsw i32 %25, 1
  %27 = sext i32 %26 to i64
  %28 = getelementptr inbounds [129 x i64], ptr %24, i64 0, i64 %27
  %29 = load i64, ptr %28, align 8, !tbaa !16
  %30 = shl i64 %29, 63
  %31 = or i64 %22, %30
  %32 = load ptr, ptr %4, align 8, !tbaa !3
  %33 = getelementptr inbounds nuw %struct.sp_int, ptr %32, i32 0, i32 2
  %34 = load i32, ptr %5, align 4, !tbaa !8
  %35 = sext i32 %34 to i64
  %36 = getelementptr inbounds [129 x i64], ptr %33, i64 0, i64 %35
  store i64 %31, ptr %36, align 8, !tbaa !16
  br label %37

37:                                               ; preds = %15
  %38 = load i32, ptr %5, align 4, !tbaa !8
  %39 = add nsw i32 %38, 1
  store i32 %39, ptr %5, align 4, !tbaa !8
  br label %7, !llvm.loop !60

40:                                               ; preds = %7
  %41 = load ptr, ptr %3, align 8, !tbaa !3
  %42 = getelementptr inbounds nuw %struct.sp_int, ptr %41, i32 0, i32 2
  %43 = load i32, ptr %5, align 4, !tbaa !8
  %44 = sext i32 %43 to i64
  %45 = getelementptr inbounds [129 x i64], ptr %42, i64 0, i64 %44
  %46 = load i64, ptr %45, align 8, !tbaa !16
  %47 = lshr i64 %46, 1
  %48 = load ptr, ptr %4, align 8, !tbaa !3
  %49 = getelementptr inbounds nuw %struct.sp_int, ptr %48, i32 0, i32 2
  %50 = load i32, ptr %5, align 4, !tbaa !8
  %51 = sext i32 %50 to i64
  %52 = getelementptr inbounds [129 x i64], ptr %49, i64 0, i64 %51
  store i64 %47, ptr %52, align 8, !tbaa !16
  %53 = load i32, ptr %5, align 4, !tbaa !8
  %54 = add nsw i32 %53, 1
  %55 = trunc i32 %54 to i16
  %56 = load ptr, ptr %4, align 8, !tbaa !3
  %57 = getelementptr inbounds nuw %struct.sp_int, ptr %56, i32 0, i32 0
  store i16 %55, ptr %57, align 8, !tbaa !15
  br label %58

58:                                               ; preds = %40
  call void @llvm.lifetime.start.p0(i64 4, ptr %6) #8
  %59 = load ptr, ptr %4, align 8, !tbaa !3
  %60 = getelementptr inbounds nuw %struct.sp_int, ptr %59, i32 0, i32 0
  %61 = load i16, ptr %60, align 8, !tbaa !15
  %62 = zext i16 %61 to i32
  %63 = icmp sgt i32 %62, 0
  br i1 %63, label %64, label %93

64:                                               ; preds = %58
  %65 = load ptr, ptr %4, align 8, !tbaa !3
  %66 = getelementptr inbounds nuw %struct.sp_int, ptr %65, i32 0, i32 0
  %67 = load i16, ptr %66, align 8, !tbaa !15
  %68 = zext i16 %67 to i32
  %69 = sub nsw i32 %68, 1
  store i32 %69, ptr %6, align 4, !tbaa !8
  br label %70

70:                                               ; preds = %84, %64
  %71 = load i32, ptr %6, align 4, !tbaa !8
  %72 = icmp sge i32 %71, 0
  br i1 %72, label %73, label %81

73:                                               ; preds = %70
  %74 = load ptr, ptr %4, align 8, !tbaa !3
  %75 = getelementptr inbounds nuw %struct.sp_int, ptr %74, i32 0, i32 2
  %76 = load i32, ptr %6, align 4, !tbaa !8
  %77 = sext i32 %76 to i64
  %78 = getelementptr inbounds [129 x i64], ptr %75, i64 0, i64 %77
  %79 = load i64, ptr %78, align 8, !tbaa !16
  %80 = icmp eq i64 %79, 0
  br label %81

81:                                               ; preds = %73, %70
  %82 = phi i1 [ false, %70 ], [ %80, %73 ]
  br i1 %82, label %83, label %87

83:                                               ; preds = %81
  br label %84

84:                                               ; preds = %83
  %85 = load i32, ptr %6, align 4, !tbaa !8
  %86 = add nsw i32 %85, -1
  store i32 %86, ptr %6, align 4, !tbaa !8
  br label %70, !llvm.loop !61

87:                                               ; preds = %81
  %88 = load i32, ptr %6, align 4, !tbaa !8
  %89 = add nsw i32 %88, 1
  %90 = trunc i32 %89 to i16
  %91 = load ptr, ptr %4, align 8, !tbaa !3
  %92 = getelementptr inbounds nuw %struct.sp_int, ptr %91, i32 0, i32 0
  store i16 %90, ptr %92, align 8, !tbaa !15
  br label %93

93:                                               ; preds = %87, %58
  call void @llvm.lifetime.end.p0(i64 4, ptr %6) #8
  br label %94

94:                                               ; preds = %93
  br label %95

95:                                               ; preds = %94
  call void @llvm.lifetime.end.p0(i64 4, ptr %5) #8
  ret void
}

; Function Attrs: nounwind uwtable
define i32 @sp_div_2_mod_ct(ptr noundef %0, ptr noundef %1, ptr noundef %2) #0 {
  %4 = alloca ptr, align 8
  %5 = alloca ptr, align 8
  %6 = alloca ptr, align 8
  %7 = alloca i32, align 4
  %8 = alloca i128, align 16
  %9 = alloca i64, align 8
  %10 = alloca i16, align 2
  %11 = alloca i64, align 8
  store ptr %0, ptr %4, align 8, !tbaa !3
  store ptr %1, ptr %5, align 8, !tbaa !3
  store ptr %2, ptr %6, align 8, !tbaa !3
  call void @llvm.lifetime.start.p0(i64 4, ptr %7) #8
  store i32 0, ptr %7, align 4, !tbaa !8
  %12 = load ptr, ptr %4, align 8, !tbaa !3
  %13 = icmp eq ptr %12, null
  br i1 %13, label %20, label %14

14:                                               ; preds = %3
  %15 = load ptr, ptr %5, align 8, !tbaa !3
  %16 = icmp eq ptr %15, null
  br i1 %16, label %20, label %17

17:                                               ; preds = %14
  %18 = load ptr, ptr %6, align 8, !tbaa !3
  %19 = icmp eq ptr %18, null
  br i1 %19, label %20, label %21

20:                                               ; preds = %17, %14, %3
  store i32 -98, ptr %7, align 4, !tbaa !8
  br label %21

21:                                               ; preds = %20, %17
  %22 = load i32, ptr %7, align 4, !tbaa !8
  %23 = icmp eq i32 %22, 0
  br i1 %23, label %24, label %36

24:                                               ; preds = %21
  %25 = load ptr, ptr %5, align 8, !tbaa !3
  %26 = getelementptr inbounds nuw %struct.sp_int, ptr %25, i32 0, i32 0
  %27 = load i16, ptr %26, align 8, !tbaa !15
  %28 = zext i16 %27 to i32
  %29 = add nsw i32 %28, 1
  %30 = load ptr, ptr %6, align 8, !tbaa !3
  %31 = getelementptr inbounds nuw %struct.sp_int, ptr %30, i32 0, i32 1
  %32 = load i16, ptr %31, align 2, !tbaa !12
  %33 = zext i16 %32 to i32
  %34 = icmp sgt i32 %29, %33
  br i1 %34, label %35, label %36

35:                                               ; preds = %24
  store i32 -98, ptr %7, align 4, !tbaa !8
  br label %36

36:                                               ; preds = %35, %24, %21
  %37 = load i32, ptr %7, align 4, !tbaa !8
  %38 = icmp eq i32 %37, 0
  br i1 %38, label %39, label %115

39:                                               ; preds = %36
  call void @llvm.lifetime.start.p0(i64 16, ptr %8) #8
  store i128 0, ptr %8, align 16, !tbaa !47
  call void @llvm.lifetime.start.p0(i64 8, ptr %9) #8
  %40 = load ptr, ptr %4, align 8, !tbaa !3
  %41 = getelementptr inbounds nuw %struct.sp_int, ptr %40, i32 0, i32 2
  %42 = getelementptr inbounds [129 x i64], ptr %41, i64 0, i64 0
  %43 = load i64, ptr %42, align 8, !tbaa !16
  %44 = and i64 %43, 1
  %45 = sub i64 0, %44
  store i64 %45, ptr %9, align 8, !tbaa !16
  call void @llvm.lifetime.start.p0(i64 2, ptr %10) #8
  store i16 0, ptr %10, align 2, !tbaa !32
  br label %46

46:                                               ; preds = %96, %39
  %47 = load i16, ptr %10, align 2, !tbaa !32
  %48 = zext i16 %47 to i32
  %49 = load ptr, ptr %5, align 8, !tbaa !3
  %50 = getelementptr inbounds nuw %struct.sp_int, ptr %49, i32 0, i32 0
  %51 = load i16, ptr %50, align 8, !tbaa !15
  %52 = zext i16 %51 to i32
  %53 = icmp slt i32 %48, %52
  br i1 %53, label %54, label %99

54:                                               ; preds = %46
  call void @llvm.lifetime.start.p0(i64 8, ptr %11) #8
  %55 = load i16, ptr %10, align 2, !tbaa !32
  %56 = zext i16 %55 to i32
  %57 = load ptr, ptr %4, align 8, !tbaa !3
  %58 = getelementptr inbounds nuw %struct.sp_int, ptr %57, i32 0, i32 0
  %59 = load i16, ptr %58, align 8, !tbaa !15
  %60 = zext i16 %59 to i32
  %61 = icmp slt i32 %56, %60
  %62 = zext i1 %61 to i32
  %63 = sext i32 %62 to i64
  %64 = sub i64 0, %63
  store i64 %64, ptr %11, align 8, !tbaa !16
  %65 = load ptr, ptr %5, align 8, !tbaa !3
  %66 = getelementptr inbounds nuw %struct.sp_int, ptr %65, i32 0, i32 2
  %67 = load i16, ptr %10, align 2, !tbaa !32
  %68 = zext i16 %67 to i64
  %69 = getelementptr inbounds nuw [129 x i64], ptr %66, i64 0, i64 %68
  %70 = load i64, ptr %69, align 8, !tbaa !16
  %71 = load i64, ptr %9, align 8, !tbaa !16
  %72 = and i64 %70, %71
  %73 = zext i64 %72 to i128
  %74 = load i128, ptr %8, align 16, !tbaa !47
  %75 = add i128 %74, %73
  store i128 %75, ptr %8, align 16, !tbaa !47
  %76 = load ptr, ptr %4, align 8, !tbaa !3
  %77 = getelementptr inbounds nuw %struct.sp_int, ptr %76, i32 0, i32 2
  %78 = load i16, ptr %10, align 2, !tbaa !32
  %79 = zext i16 %78 to i64
  %80 = getelementptr inbounds nuw [129 x i64], ptr %77, i64 0, i64 %79
  %81 = load i64, ptr %80, align 8, !tbaa !16
  %82 = load i64, ptr %11, align 8, !tbaa !16
  %83 = and i64 %81, %82
  %84 = zext i64 %83 to i128
  %85 = load i128, ptr %8, align 16, !tbaa !47
  %86 = add i128 %85, %84
  store i128 %86, ptr %8, align 16, !tbaa !47
  %87 = load i128, ptr %8, align 16, !tbaa !47
  %88 = trunc i128 %87 to i64
  %89 = load ptr, ptr %6, align 8, !tbaa !3
  %90 = getelementptr inbounds nuw %struct.sp_int, ptr %89, i32 0, i32 2
  %91 = load i16, ptr %10, align 2, !tbaa !32
  %92 = zext i16 %91 to i64
  %93 = getelementptr inbounds nuw [129 x i64], ptr %90, i64 0, i64 %92
  store i64 %88, ptr %93, align 8, !tbaa !16
  %94 = load i128, ptr %8, align 16, !tbaa !47
  %95 = lshr i128 %94, 64
  store i128 %95, ptr %8, align 16, !tbaa !47
  call void @llvm.lifetime.end.p0(i64 8, ptr %11) #8
  br label %96

96:                                               ; preds = %54
  %97 = load i16, ptr %10, align 2, !tbaa !32
  %98 = add i16 %97, 1
  store i16 %98, ptr %10, align 2, !tbaa !32
  br label %46, !llvm.loop !62

99:                                               ; preds = %46
  %100 = load i128, ptr %8, align 16, !tbaa !47
  %101 = trunc i128 %100 to i64
  %102 = load ptr, ptr %6, align 8, !tbaa !3
  %103 = getelementptr inbounds nuw %struct.sp_int, ptr %102, i32 0, i32 2
  %104 = load i16, ptr %10, align 2, !tbaa !32
  %105 = zext i16 %104 to i64
  %106 = getelementptr inbounds nuw [129 x i64], ptr %103, i64 0, i64 %105
  store i64 %101, ptr %106, align 8, !tbaa !16
  %107 = load i16, ptr %10, align 2, !tbaa !32
  %108 = zext i16 %107 to i32
  %109 = add nsw i32 %108, 1
  %110 = trunc i32 %109 to i16
  %111 = load ptr, ptr %6, align 8, !tbaa !3
  %112 = getelementptr inbounds nuw %struct.sp_int, ptr %111, i32 0, i32 0
  store i16 %110, ptr %112, align 8, !tbaa !15
  %113 = load ptr, ptr %6, align 8, !tbaa !3
  %114 = load ptr, ptr %6, align 8, !tbaa !3
  call void @_sp_div_2(ptr noundef %113, ptr noundef %114)
  call void @llvm.lifetime.end.p0(i64 2, ptr %10) #8
  call void @llvm.lifetime.end.p0(i64 8, ptr %9) #8
  call void @llvm.lifetime.end.p0(i64 16, ptr %8) #8
  br label %115

115:                                              ; preds = %99, %36
  %116 = load i32, ptr %7, align 4, !tbaa !8
  call void @llvm.lifetime.end.p0(i64 4, ptr %7) #8
  ret i32 %116
}