; Function Attrs: nofree norecurse nosync nounwind memory(argmem: readwrite) uwtable
define range(i32 -98, 1) i32 @sp_div_2_mod_ct(ptr noundef readonly captures(address_is_null) %0, ptr noundef readonly captures(address_is_null) %1, ptr noundef captures(address_is_null) %2) local_unnamed_addr #8 {
  %4 = icmp ne ptr %0, null
  %5 = icmp ne ptr %1, null
  %or.cond.not41 = and i1 %4, %5
  %6 = icmp ne ptr %2, null
  %or.cond3.not = and i1 %or.cond.not41, %6
  br i1 %or.cond3.not, label %7, label %_sp_div_2.exit

7:                                                ; preds = %3
  %8 = load i16, ptr %1, align 8, !tbaa !12
  %9 = getelementptr inbounds nuw i8, ptr %2, i64 2
  %10 = load i16, ptr %9, align 2, !tbaa !10
  %.not = icmp ult i16 %8, %10
  br i1 %.not, label %.thread, label %_sp_div_2.exit

.thread:                                          ; preds = %7
  %11 = getelementptr inbounds nuw i8, ptr %0, i64 8
  %.not53 = icmp eq i16 %8, 0
  br i1 %.not53, label %._crit_edge, label %.lr.ph

.lr.ph:                                           ; preds = %.thread
  %12 = load i64, ptr %11, align 8, !tbaa !8
  %.fr = freeze i64 %12
  %13 = and i64 %.fr, 1
  %14 = load i16, ptr %0, align 8, !tbaa !12
  %15 = getelementptr inbounds nuw i8, ptr %1, i64 8
  %16 = icmp eq i64 %13, 0
  %17 = getelementptr inbounds nuw i8, ptr %2, i64 8
  %18 = zext i16 %14 to i64
  %wide.trip.count63 = zext i16 %8 to i64
  br i1 %16, label %.lr.ph.split.us, label %.lr.ph.split

.lr.ph.split.us:                                  ; preds = %.lr.ph, %.lr.ph.split.us
  %indvars.iv60 = phi i64 [ %indvars.iv.next61, %.lr.ph.split.us ], [ 0, %.lr.ph ]
  %19 = icmp samesign ult i64 %indvars.iv60, %18
  %20 = getelementptr inbounds nuw [129 x i64], ptr %11, i64 0, i64 %indvars.iv60
  %21 = load i64, ptr %20, align 8, !tbaa !8
  %narrow65 = select i1 %19, i64 %21, i64 0
  %22 = getelementptr inbounds nuw [129 x i64], ptr %17, i64 0, i64 %indvars.iv60
  store i64 %narrow65, ptr %22, align 8, !tbaa !8
  %indvars.iv.next61 = add nuw nsw i64 %indvars.iv60, 1
  %exitcond64.not = icmp eq i64 %indvars.iv.next61, %wide.trip.count63
  br i1 %exitcond64.not, label %._crit_edge, label %.lr.ph.split.us, !llvm.loop !43

.lr.ph.split:                                     ; preds = %.lr.ph, %.lr.ph.split
  %indvars.iv = phi i64 [ %indvars.iv.next, %.lr.ph.split ], [ 0, %.lr.ph ]
  %.03649 = phi i128 [ %34, %.lr.ph.split ], [ 0, %.lr.ph ]
  %23 = icmp samesign ult i64 %indvars.iv, %18
  %24 = getelementptr inbounds nuw [129 x i64], ptr %15, i64 0, i64 %indvars.iv
  %25 = load i64, ptr %24, align 8, !tbaa !8
  %26 = zext i64 %25 to i128
  %27 = add nuw nsw i128 %.03649, %26
  %28 = getelementptr inbounds nuw [129 x i64], ptr %11, i64 0, i64 %indvars.iv
  %29 = load i64, ptr %28, align 8, !tbaa !8
  %narrow = select i1 %23, i64 %29, i64 0
  %30 = zext i64 %narrow to i128
  %31 = add nuw nsw i128 %27, %30
  %32 = trunc i128 %31 to i64
  %33 = getelementptr inbounds nuw [129 x i64], ptr %17, i64 0, i64 %indvars.iv
  store i64 %32, ptr %33, align 8, !tbaa !8
  %34 = lshr i128 %31, 64
  %indvars.iv.next = add nuw nsw i64 %indvars.iv, 1
  %exitcond.not = icmp eq i64 %indvars.iv.next, %wide.trip.count63
  br i1 %exitcond.not, label %._crit_edge.loopexit56, label %.lr.ph.split, !llvm.loop !43

._crit_edge.loopexit56:                           ; preds = %.lr.ph.split
  %extract.t55 = trunc nuw nsw i128 %34 to i64
  br label %._crit_edge

._crit_edge:                                      ; preds = %.lr.ph.split.us, %.thread, %._crit_edge.loopexit56
  %.036.lcssa.off0 = phi i64 [ %extract.t55, %._crit_edge.loopexit56 ], [ 0, %.thread ], [ 0, %.lr.ph.split.us ]
  %35 = getelementptr inbounds nuw i8, ptr %2, i64 8
  %36 = zext i16 %8 to i64
  %37 = getelementptr inbounds nuw [129 x i64], ptr %35, i64 0, i64 %36
  store i64 %.036.lcssa.off0, ptr %37, align 8, !tbaa !8
  %38 = add i16 %8, 1
  %39 = zext i16 %38 to i32
  %40 = add nsw i32 %39, -1
  %41 = icmp ugt i16 %38, 1
  br i1 %41, label %.lr.ph.i, label %._crit_edge.thread.i

._crit_edge.thread.i:                             ; preds = %._crit_edge
  %42 = load i64, ptr %35, align 8, !tbaa !8
  %43 = lshr i64 %42, 1
  store i64 %43, ptr %35, align 8, !tbaa !8
  br label %55

.lr.ph.i:                                         ; preds = %._crit_edge
  %wide.trip.count.i = zext i32 %40 to i64
  %.pre = load i64, ptr %35, align 8, !tbaa !8
  br label %44

44:                                               ; preds = %44, %.lr.ph.i
  %45 = phi i64 [ %.pre, %.lr.ph.i ], [ %48, %44 ]
  %indvars.iv.i = phi i64 [ 0, %.lr.ph.i ], [ %indvars.iv.next.i, %44 ]
  %46 = getelementptr inbounds nuw [129 x i64], ptr %35, i64 0, i64 %indvars.iv.i
  %indvars.iv.next.i = add nuw nsw i64 %indvars.iv.i, 1
  %47 = getelementptr inbounds nuw [129 x i64], ptr %35, i64 0, i64 %indvars.iv.next.i
  %48 = load i64, ptr %47, align 8, !tbaa !8
  %49 = tail call i64 @llvm.fshl.i64(i64 %48, i64 %45, i64 63)
  store i64 %49, ptr %46, align 8, !tbaa !8
  %exitcond.not.i = icmp eq i64 %indvars.iv.next.i, %wide.trip.count.i
  br i1 %exitcond.not.i, label %._crit_edge.i, label %44, !llvm.loop !41

._crit_edge.i:                                    ; preds = %44
  %50 = getelementptr inbounds nuw [129 x i64], ptr %35, i64 0, i64 %wide.trip.count.i
  %51 = load i64, ptr %50, align 8, !tbaa !8
  %52 = lshr i64 %51, 1
  store i64 %52, ptr %50, align 8, !tbaa !8
  %53 = trunc i32 %40 to i16
  %54 = add i16 %53, 1
  store i16 %54, ptr %2, align 8, !tbaa !12
  %.not.i = icmp eq i16 %54, 0
  br i1 %.not.i, label %_sp_div_2.exit, label %55

55:                                               ; preds = %._crit_edge.i, %._crit_edge.thread.i
  %56 = phi i64 [ 0, %._crit_edge.thread.i ], [ %wide.trip.count.i, %._crit_edge.i ]
  %57 = add nuw nsw i64 %56, 1
  br label %58

58:                                               ; preds = %60, %55
  %indvars.iv26.i = phi i64 [ %indvars.iv.next27.i, %60 ], [ %57, %55 ]
  %59 = icmp sgt i64 %indvars.iv26.i, 0
  br i1 %59, label %60, label %.critedge.i

60:                                               ; preds = %58
  %indvars.iv.next27.i = add nsw i64 %indvars.iv26.i, -1
  %61 = getelementptr inbounds nuw [129 x i64], ptr %35, i64 0, i64 %indvars.iv.next27.i
  %62 = load i64, ptr %61, align 8, !tbaa !8
  %63 = icmp eq i64 %62, 0
  br i1 %63, label %58, label %.critedge.split.loop.exit31.i, !llvm.loop !42

.critedge.split.loop.exit31.i:                    ; preds = %60
  %64 = trunc i64 %indvars.iv26.i to i16
  br label %.critedge.i

.critedge.i:                                      ; preds = %58, %.critedge.split.loop.exit31.i
  %.0.in.lcssa.i = phi i16 [ %64, %.critedge.split.loop.exit31.i ], [ 0, %58 ]
  store i16 %.0.in.lcssa.i, ptr %2, align 8, !tbaa !12
  br label %_sp_div_2.exit

_sp_div_2.exit:                                   ; preds = %3, %7, %.critedge.i, %._crit_edge.i
  %.144 = phi i32 [ 0, %._crit_edge.i ], [ 0, %.critedge.i ], [ -98, %7 ], [ -98, %3 ]
  ret i32 %.144
}